; Function Attrs: nounwind uwtable
define noalias ptr @l_Std_Range_forIn_x27_loop___at_Lean_Elab_WF_GuessLex_explainMutualFailure___spec__4___boxed(ptr noundef %0, ptr noundef %1, ptr noundef %2, ptr noundef %3, ptr noundef %4, ptr noundef %5, ptr noundef readnone captures(none) %6, ptr noundef readnone captures(none) %7, ptr noundef %8, ptr noundef %9, ptr noundef %10, ptr noundef %11, ptr noundef %12) local_unnamed_addr #1 {
  %14 = tail call ptr @l_Std_Range_forIn_x27_loop___at_Lean_Elab_WF_GuessLex_explainMutualFailure___spec__4(ptr noundef %0, ptr noundef %1, ptr poison, ptr noundef %3, ptr noundef %4, ptr noundef %5, ptr poison, ptr poison, ptr poison, ptr poison, ptr poison, ptr poison, ptr noundef %12)
  %15 = ptrtoint ptr %11 to i64
  %16 = and i64 %15, 1
  %.not = icmp eq i64 %16, 0
  br i1 %.not, label %17, label %lean_dec.exit28

17:                                               ; preds = %13
  %18 = load i32, ptr %11, align 4, !tbaa !8
  %19 = icmp sgt i32 %18, 1
  br i1 %19, label %20, label %22, !prof !11

20:                                               ; preds = %17
  %21 = add nsw i32 %18, -1
  store i32 %21, ptr %11, align 4, !tbaa !8
  br label %lean_dec.exit28

22:                                               ; preds = %17
  %.not.i = icmp eq i32 %18, 0
  br i1 %.not.i, label %lean_dec.exit28, label %23

23:                                               ; preds = %22
  tail call void @lean_dec_ref_cold(ptr noundef nonnull %11) #8
  br label %lean_dec.exit28

lean_dec.exit28:                                  ; preds = %23, %22, %20, %13
  %24 = ptrtoint ptr %10 to i64
  %25 = and i64 %24, 1
  %.not43 = icmp eq i64 %25, 0
  br i1 %.not43, label %26, label %lean_dec.exit27

26:                                               ; preds = %lean_dec.exit28
  %27 = load i32, ptr %10, align 4, !tbaa !8
  %28 = icmp sgt i32 %27, 1
  br i1 %28, label %29, label %31, !prof !11

29:                                               ; preds = %26
  %30 = add nsw i32 %27, -1
  store i32 %30, ptr %10, align 4, !tbaa !8
  br label %lean_dec.exit27

31:                                               ; preds = %26
  %.not.i29 = icmp eq i32 %27, 0
  br i1 %.not.i29, label %lean_dec.exit27, label %32

32:                                               ; preds = %31
  tail call void @lean_dec_ref_cold(ptr noundef nonnull %10) #8
  br label %lean_dec.exit27

lean_dec.exit27:                                  ; preds = %32, %31, %29, %lean_dec.exit28
  %33 = ptrtoint ptr %9 to i64
  %34 = and i64 %33, 1
  %.not44 = icmp eq i64 %34, 0
  br i1 %.not44, label %35, label %lean_dec.exit26

35:                                               ; preds = %lean_dec.exit27
  %36 = load i32, ptr %9, align 4, !tbaa !8
  %37 = icmp sgt i32 %36, 1
  br i1 %37, label %38, label %40, !prof !11

38:                                               ; preds = %35
  %39 = add nsw i32 %36, -1
  store i32 %39, ptr %9, align 4, !tbaa !8
  br label %lean_dec.exit26

40:                                               ; preds = %35
  %.not.i31 = icmp eq i32 %36, 0
  br i1 %.not.i31, label %lean_dec.exit26, label %41

41:                                               ; preds = %40
  tail call void @lean_dec_ref_cold(ptr noundef nonnull %9) #8
  br label %lean_dec.exit26

lean_dec.exit26:                                  ; preds = %41, %40, %38, %lean_dec.exit27
  %42 = ptrtoint ptr %8 to i64
  %43 = and i64 %42, 1
  %.not45 = icmp eq i64 %43, 0
  br i1 %.not45, label %44, label %lean_dec.exit25

44:                                               ; preds = %lean_dec.exit26
  %45 = load i32, ptr %8, align 4, !tbaa !8
  %46 = icmp sgt i32 %45, 1
  br i1 %46, label %47, label %49, !prof !11

47:                                               ; preds = %44
  %48 = add nsw i32 %45, -1
  store i32 %48, ptr %8, align 4, !tbaa !8
  br label %lean_dec.exit25

49:                                               ; preds = %44
  %.not.i33 = icmp eq i32 %45, 0
  br i1 %.not.i33, label %lean_dec.exit25, label %50

50:                                               ; preds = %49
  tail call void @lean_dec_ref_cold(ptr noundef nonnull %8) #8
  br label %lean_dec.exit25

lean_dec.exit25:                                  ; preds = %50, %49, %47, %lean_dec.exit26
  %51 = ptrtoint ptr %3 to i64
  %52 = and i64 %51, 1
  %.not46 = icmp eq i64 %52, 0
  br i1 %.not46, label %53, label %lean_dec.exit24

53:                                               ; preds = %lean_dec.exit25
  %54 = load i32, ptr %3, align 4, !tbaa !8
  %55 = icmp sgt i32 %54, 1
  br i1 %55, label %56, label %58, !prof !11

56:                                               ; preds = %53
  %57 = add nsw i32 %54, -1
  store i32 %57, ptr %3, align 4, !tbaa !8
  br label %lean_dec.exit24

58:                                               ; preds = %53
  %.not.i35 = icmp eq i32 %54, 0
  br i1 %.not.i35, label %lean_dec.exit24, label %59

59:                                               ; preds = %58
  tail call void @lean_dec_ref_cold(ptr noundef nonnull %3) #8
  br label %lean_dec.exit24

lean_dec.exit24:                                  ; preds = %59, %58, %56, %lean_dec.exit25
  %60 = ptrtoint ptr %2 to i64
  %61 = and i64 %60, 1
  %.not47 = icmp eq i64 %61, 0
  br i1 %.not47, label %62, label %lean_dec.exit23

62:                                               ; preds = %lean_dec.exit24
  %63 = load i32, ptr %2, align 4, !tbaa !8
  %64 = icmp sgt i32 %63, 1
  br i1 %64, label %65, label %67, !prof !11

65:                                               ; preds = %62
  %66 = add nsw i32 %63, -1
  store i32 %66, ptr %2, align 4, !tbaa !8
  br label %lean_dec.exit23

67:                                               ; preds = %62
  %.not.i37 = icmp eq i32 %63, 0
  br i1 %.not.i37, label %lean_dec.exit23, label %68

68:                                               ; preds = %67
  tail call void @lean_dec_ref_cold(ptr noundef nonnull %2) #8
  br label %lean_dec.exit23

lean_dec.exit23:                                  ; preds = %68, %67, %65, %lean_dec.exit24
  %69 = ptrtoint ptr %1 to i64
  %70 = and i64 %69, 1
  %.not48 = icmp eq i64 %70, 0
  br i1 %.not48, label %71, label %lean_dec.exit22

71:                                               ; preds = %lean_dec.exit23
  %72 = load i32, ptr %1, align 4, !tbaa !8
  %73 = icmp sgt i32 %72, 1
  br i1 %73, label %74, label %76, !prof !11

74:                                               ; preds = %71
  %75 = add nsw i32 %72, -1
  store i32 %75, ptr %1, align 4, !tbaa !8
  br label %lean_dec.exit22

76:                                               ; preds = %71
  %.not.i39 = icmp eq i32 %72, 0
  br i1 %.not.i39, label %lean_dec.exit22, label %77

77:                                               ; preds = %76
  tail call void @lean_dec_ref_cold(ptr noundef nonnull %1) #8
  br label %lean_dec.exit22

lean_dec.exit22:                                  ; preds = %77, %76, %74, %lean_dec.exit23
  %78 = ptrtoint ptr %0 to i64
  %79 = and i64 %78, 1
  %.not49 = icmp eq i64 %79, 0
  br i1 %.not49, label %80, label %lean_dec.exit

80:                                               ; preds = %lean_dec.exit22
  %81 = load i32, ptr %0, align 4, !tbaa !8
  %82 = icmp sgt i32 %81, 1
  br i1 %82, label %83, label %85, !prof !11

83:                                               ; preds = %80
  %84 = add nsw i32 %81, -1
  store i32 %84, ptr %0, align 4, !tbaa !8
  br label %lean_dec.exit

85:                                               ; preds = %80
  %.not.i41 = icmp eq i32 %81, 0
  br i1 %.not.i41, label %lean_dec.exit, label %86

86:                                               ; preds = %85
  tail call void @lean_dec_ref_cold(ptr noundef nonnull %0) #8
  br label %lean_dec.exit

lean_dec.exit:                                    ; preds = %86, %85, %83, %lean_dec.exit22
  ret ptr %14
}